target datalayout = "e-m:e-p270:32:32-p271:32:32-p272:64:64-i64:64-i128:128-f80:128-n8:16:32:64-S128"
target triple = "x86_64-pc-linux-gnu"

%union.pthread_mutex_t = type { %struct.__pthread_mutex_s }
%struct.__pthread_mutex_s = type { i32, i32, i32, i32, i32, i16, i16, %struct.__pthread_internal_list }
%struct.__pthread_internal_list = type { ptr, ptr }

@_ZNSt3__112__rs_default4__c_E = dso_local global i32 0, align 4
@_ZNSt3__1L8__rs_mutE = internal global %union.pthread_mutex_t zeroinitializer, align 8

; Function Attrs: noinline noreturn nounwind uwtable
define linkonce_odr hidden void @__clang_call_terminate(ptr noundef %0) #3 comdat {
  %2 = call ptr @__cxa_begin_catch(ptr %0) #4
  call void @_ZSt9terminatev() #7
  unreachable
}

; Function Attrs: inlinehint mustprogress nounwind uwtable
define linkonce_odr hidden noundef i32 @_ZNSt3__121__libcpp_mutex_unlockB8ne210000EP15pthread_mutex_t(ptr noundef %0) #1 comdat {
  %2 = alloca ptr, align 8
  store ptr %0, ptr %2, align 8, !tbaa !12
  %3 = load ptr, ptr %2, align 8, !tbaa !12
  %4 = call i32 @pthread_mutex_unlock(ptr noundef %3) #4
  ret i32 %4
}

; Function Attrs: mustprogress nounwind uwtable
define dso_local void @_ZNSt3__112__rs_defaultD2Ev(ptr noundef nonnull align 1 dereferenceable(1) %0) unnamed_addr #2 align 2 personality ptr @__gxx_personality_v0 {
  %2 = alloca ptr, align 8
  store ptr %0, ptr %2, align 8, !tbaa !5
  %3 = load i32, ptr @_ZNSt3__112__rs_default4__c_E, align 4, !tbaa !10
  %4 = add i32 %3, -1
  store i32 %4, ptr @_ZNSt3__112__rs_default4__c_E, align 4, !tbaa !10
  %5 = icmp eq i32 %4, 0
  br i1 %5, label %6, label %9

6:                                                ; preds = %1
  %7 = invoke noundef i32 @_ZNSt3__121__libcpp_mutex_unlockB8ne210000EP15pthread_mutex_t(ptr noundef @_ZNSt3__1L8__rs_mutE)
          to label %8 unwind label %10

8:                                                ; preds = %6
  br label %9

9:                                                ; preds = %8, %1
  ret void

10:                                               ; preds = %6
  %11 = landingpad { ptr, i32 }
          catch ptr null
  %12 = extractvalue { ptr, i32 } %11, 0
  call void @__clang_call_terminate(ptr %12) #7
  unreachable
}