; Function Attrs: mustprogress nounwind uwtable
define dso_local void @_ZNSt3__112__rs_defaultD2Ev(ptr nonnull readnone align 1 captures(none) %0) unnamed_addr #0 align 2 personality ptr @__gxx_personality_v0 {
  %2 = load i32, ptr @_ZNSt3__112__rs_default4__c_E, align 4, !tbaa !5
  %3 = add i32 %2, -1
  store i32 %3, ptr @_ZNSt3__112__rs_default4__c_E, align 4, !tbaa !5
  %4 = icmp eq i32 %3, 0
  br i1 %4, label %5, label %7

5:                                                ; preds = %1
  %6 = tail call noundef i32 @pthread_mutex_unlock(ptr noundef nonnull @_ZNSt3__1L8__rs_mutE) #5
  br label %7

7:                                                ; preds = %5, %1
  ret void
}